target datalayout = "e-m:e-p270:32:32-p271:32:32-p272:64:64-i64:64-i128:128-f80:128-n8:16:32:64-S128"
target triple = "x86_64-pc-linux-gnu"

%struct.dt_dev_histogram_stats_t = type { i32, i64, i32, i32 }
%struct.dt_iop_buffer_dsc_t = type { i32, i32, i32, [6 x [6 x i8]], %struct.anon.2, [12 x i8], %struct.anon.3, [4 x float], i32, [12 x i8] }
%struct.anon.2 = type { i16, i16 }
%struct.anon.3 = type { i32, [12 x i8], [4 x float] }
%struct.dt_iop_roi_t = type { i32, i32, i32, i32, float }
%struct.dt_dev_pixelpipe_iop_t = type { ptr, ptr, ptr, ptr, i32, i32, %struct.dt_dev_histogram_collection_params_t, ptr, %struct.dt_dev_histogram_stats_t, [4 x i32], float, i32, i32, i64, i32, i32, %struct.dt_iop_roi_t, %struct.dt_iop_roi_t, %struct.dt_iop_roi_t, %struct.dt_iop_roi_t, i32, i32, %struct.dt_iop_buffer_dsc_t, %struct.dt_iop_buffer_dsc_t, ptr, [8 x i8] }
%struct.dt_dev_histogram_collection_params_t = type { ptr, i32 }

; Function Attrs: nounwind uwtable
define i32 @dt_tiling_piece_fits_host_memory(ptr noundef %0, i64 noundef %1, i64 noundef %2, i32 noundef %3, float noundef %4, i64 noundef %5) #0 {
  %7 = alloca ptr, align 8
  %8 = alloca i64, align 8
  %9 = alloca i64, align 8
  %10 = alloca i32, align 4
  %11 = alloca float, align 4
  %12 = alloca i64, align 8
  %13 = alloca i64, align 8
  %14 = alloca i64, align 8
  store ptr %0, ptr %7, align 8, !tbaa !11
  store i64 %1, ptr %8, align 8, !tbaa !108
  store i64 %2, ptr %9, align 8, !tbaa !108
  store i32 %3, ptr %10, align 4, !tbaa !16
  store float %4, ptr %11, align 4, !tbaa !49
  store i64 %5, ptr %12, align 8, !tbaa !108
  call void @llvm.lifetime.start.p0(i64 8, ptr %13) #10
  %15 = load ptr, ptr %7, align 8, !tbaa !11
  %16 = getelementptr inbounds nuw %struct.dt_dev_pixelpipe_iop_t, ptr %15, i32 0, i32 1
  %17 = load ptr, ptr %16, align 8, !tbaa !35
  %18 = call i64 @dt_get_available_pipe_mem(ptr noundef %17)
  store i64 %18, ptr %13, align 8, !tbaa !108
  call void @llvm.lifetime.start.p0(i64 8, ptr %14) #10
  %19 = load float, ptr %11, align 4, !tbaa !49
  %20 = load i64, ptr %8, align 8, !tbaa !108
  %21 = uitofp i64 %20 to float
  %22 = fmul reassoc nsz arcp contract afn float %19, %21
  %23 = load i64, ptr %9, align 8, !tbaa !108
  %24 = uitofp i64 %23 to float
  %25 = fmul reassoc nsz arcp contract afn float %22, %24
  %26 = load i32, ptr %10, align 4, !tbaa !16
  %27 = uitofp i32 %26 to float
  %28 = fmul reassoc nsz arcp contract afn float %25, %27
  %29 = load i64, ptr %12, align 8, !tbaa !108
  %30 = uitofp i64 %29 to float
  %31 = fadd reassoc nsz arcp contract afn float %28, %30
  %32 = fptoui float %31 to i64
  store i64 %32, ptr %14, align 8, !tbaa !108
  %33 = load i64, ptr %14, align 8, !tbaa !108
  %34 = load i64, ptr %13, align 8, !tbaa !108
  %35 = icmp ule i64 %33, %34
  %36 = select i1 %35, i32 1, i32 0
  call void @llvm.lifetime.end.p0(i64 8, ptr %14) #10
  call void @llvm.lifetime.end.p0(i64 8, ptr %13) #10
  ret i32 %36
}