; Function Attrs: nounwind uwtable
define range(i32 0, 2) i32 @dt_tiling_piece_fits_host_memory(ptr noundef readonly captures(none) %0, i64 noundef %1, i64 noundef %2, i32 noundef %3, float noundef %4, i64 noundef %5) local_unnamed_addr #0 {
  %7 = getelementptr inbounds nuw i8, ptr %0, i64 8
  %8 = load ptr, ptr %7, align 8, !tbaa !28
  %9 = tail call i64 @dt_get_available_pipe_mem(ptr noundef %8) #12
  %10 = uitofp i64 %1 to float
  %11 = uitofp i64 %2 to float
  %12 = uitofp i32 %3 to float
  %13 = fmul reassoc nsz arcp contract afn float %11, %10
  %14 = fmul reassoc nsz arcp contract afn float %13, %4
  %15 = fmul reassoc nsz arcp contract afn float %14, %12
  %16 = uitofp i64 %5 to float
  %17 = fadd reassoc nsz arcp contract afn float %15, %16
  %18 = fptoui float %17 to i64
  %.not = icmp uge i64 %9, %18
  %19 = zext i1 %.not to i32
  ret i32 %19
}